(dp1
S'dec'
p2
F50
sS'sphere'
p3
(lp4
ccopy_reg
_reconstructor
p5
(cfatiando.mesher
Sphere
p6
c__builtin__
object
p7
NtRp8
(dp9
S'center'
p10
cnumpy.core.multiarray
_reconstruct
p11
(cnumpy
ndarray
p12
(I0
tS'b'
tRp13
(I1
(I3
tcnumpy
dtype
p14
(S'f8'
I0
I1
tRp15
(I3
S'<'
NNNI-1
I-1
I0
tbI00
S'\x00\x00\x00\x00\x00\x00\x00\x00\x00\x00\x00\x00\x00\x00\x00\x00\x00\x00\x00\x00\x00\x00Y@'
tbsS'radius'
p16
F50
sS'props'
p17
(dp18
S'magnetization'
p19
g11
(g12
(I0
tS'b'
tRp20
(I1
(I3
tg15
I00
S'`\xb2\xa9\x1e\x9a\t\x87?\xdcYD\x08}t\x8b?\x96t%V\xd1\t\x9f\xbf'
tbssS'y'
F0
sS'x'
F0
sS'z'
F100
sbasS'intensity'
p21
F0.035000000000000003
sS'r'
F50
sg17
(dp22
g19
g20
ssS'y'
F0
sS'x'
F0
sS'z'
F100
sS'inc'
p23
F-60
s.